target datalayout = "e-m:e-p270:32:32-p271:32:32-p272:64:64-i64:64-i128:128-f80:128-n8:16:32:64-S128"
target triple = "x86_64-pc-linux-gnu"

%struct.cli_ctx_tag = type { ptr, ptr, ptr, ptr, ptr, ptr, ptr, i64, ptr, i32, i32, ptr, i32, i32, ptr, [16 x i8], ptr, ptr, ptr, ptr, ptr, ptr, %struct.timeval, i8, i8 }
%struct.timeval = type { i64, i64 }
%struct.cl_engine = type { i32, i32, i32, [2 x i32], i32, i32, i32, ptr, i32, i64, i32, i32, i64, i64, i32, i32, i32, i32, ptr, ptr, ptr, ptr, ptr, ptr, ptr, ptr, ptr, ptr, ptr, ptr, ptr, ptr, ptr, ptr, ptr, ptr, ptr, i64, ptr, %struct.crtmgr, ptr, ptr, ptr, ptr, ptr, ptr, ptr, ptr, ptr, ptr, ptr, ptr, ptr, ptr, ptr, ptr, ptr, %struct.cli_all_bc, [7 x ptr], [7 x i32], i32, i32, i32, i32, i64, i64, i64, i64, i64, ptr, ptr, ptr, ptr, ptr, ptr, ptr, ptr, ptr, i32, i32, i32, i64, i64, i64, ptr }
%struct.crtmgr = type { ptr, i32 }
%struct.cli_all_bc = type { ptr, i32, ptr, %struct.cli_environment, i32 }
%struct.cli_environment = type { i32, i32, i32, i32, i32, i32, i32, [65 x i8], [65 x i8], [65 x i8], [65 x i8], [65 x i8], [65 x i8], [65 x i8], i8, i8, i8, i8, i8, i8, i8, i8, i8 }
%struct.arj_metadata_tag = type { ptr, i32, i32, i32, i32, i8, ptr, i64 }

@.str.185 = private unnamed_addr constant [18 x i8] c"in cli_scanarj()\0A\00", align 1
@.str.186 = private unnamed_addr constant [8 x i8] c"arj-tmp\00", align 1
@.str.187 = private unnamed_addr constant [42 x i8] c"ARJ: Can't create temporary directory %s\0A\00", align 1
@.str.188 = private unnamed_addr constant [16 x i8] c"ARJ: Error: %s\0A\00", align 1
@.str.189 = private unnamed_addr constant [39 x i8] c"ARJ: cli_unarj_prepare_file Error: %s\0A\00", align 1
@.str.190 = private unnamed_addr constant [4 x i8] c"ARJ\00", align 1
@.str.191 = private unnamed_addr constant [39 x i8] c"ARJ: cli_unarj_extract_file Error: %s\0A\00", align 1
@.str.192 = private unnamed_addr constant [29 x i8] c"ARJ: call to lseek() failed\0A\00", align 1
@.str.193 = private unnamed_addr constant [20 x i8] c"ARJ: Exit code: %d\0A\00", align 1

; Function Attrs: nounwind uwtable
define i32 @cli_magic_scan_desc(i32 noundef %0, ptr noundef %1, ptr noundef %2, ptr noundef %3, i32 noundef %4) #0 {
  %6 = alloca i32, align 4
  %7 = alloca ptr, align 8
  %8 = alloca ptr, align 8
  %9 = alloca ptr, align 8
  %10 = alloca i32, align 4
  store i32 %0, ptr %6, align 4
  store ptr %1, ptr %7, align 8
  store ptr %2, ptr %8, align 8
  store ptr %3, ptr %9, align 8
  store i32 %4, ptr %10, align 4
  %11 = load i32, ptr %6, align 4
  %12 = load ptr, ptr %7, align 8
  %13 = load ptr, ptr %8, align 8
  %14 = load ptr, ptr %9, align 8
  %15 = load i32, ptr %10, align 4
  %16 = call i32 @cli_magic_scan_desc_type(i32 noundef %11, ptr noundef %12, ptr noundef %13, i32 noundef 0, ptr noundef %14, i32 noundef %15)
  ret i32 %16
}

; Function Attrs: nounwind uwtable
define internal i32 @cli_scanarj(ptr noundef %0) #0 {
  %2 = alloca i32, align 4
  %3 = alloca ptr, align 8
  %4 = alloca i32, align 4
  %5 = alloca i32, align 4
  %6 = alloca %struct.arj_metadata_tag, align 8
  %7 = alloca ptr, align 8
  store ptr %0, ptr %3, align 8
  store i32 0, ptr %4, align 4
  store i32 0, ptr %5, align 4
  store ptr null, ptr %7, align 8
  call void (ptr, ...) @cli_dbgmsg(ptr noundef @.str.185)
  call void @llvm.memset.p0.i64(ptr align 8 %6, i8 0, i64 48, i1 false)
  %8 = load ptr, ptr %3, align 8
  %9 = getelementptr inbounds %struct.cli_ctx_tag, ptr %8, i32 0, i32 2
  %10 = load ptr, ptr %9, align 8
  %11 = call ptr @cli_gentemp_with_prefix(ptr noundef %10, ptr noundef @.str.186)
  store ptr %11, ptr %7, align 8
  %12 = icmp ne ptr %11, null
  br i1 %12, label %14, label %13

13:                                               ; preds = %1
  store i32 20, ptr %2, align 4
  br label %166

14:                                               ; preds = %1
  %15 = load ptr, ptr %7, align 8
  %16 = call i32 @mkdir(ptr noundef %15, i32 noundef 448) #11
  %17 = icmp ne i32 %16, 0
  br i1 %17, label %18, label %21

18:                                               ; preds = %14
  %19 = load ptr, ptr %7, align 8
  call void (ptr, ...) @cli_dbgmsg(ptr noundef @.str.187, ptr noundef %19)
  %20 = load ptr, ptr %7, align 8
  call void @free(ptr noundef %20) #11
  store i32 18, ptr %2, align 4
  br label %166

21:                                               ; preds = %14
  %22 = load ptr, ptr %3, align 8
  %23 = getelementptr inbounds %struct.cli_ctx_tag, ptr %22, i32 0, i32 14
  %24 = load ptr, ptr %23, align 8
  %25 = load ptr, ptr %7, align 8
  %26 = call i32 @cli_unarj_open(ptr noundef %24, ptr noundef %25, ptr noundef %6)
  store i32 %26, ptr %4, align 4
  %27 = load i32, ptr %4, align 4
  %28 = icmp ne i32 %27, 0
  br i1 %28, label %29, label %44

29:                                               ; preds = %21
  %30 = load ptr, ptr %3, align 8
  %31 = getelementptr inbounds %struct.cli_ctx_tag, ptr %30, i32 0, i32 6
  %32 = load ptr, ptr %31, align 8
  %33 = getelementptr inbounds %struct.cl_engine, ptr %32, i32 0, i32 8
  %34 = load i32, ptr %33, align 8
  %35 = icmp ne i32 %34, 0
  br i1 %35, label %39, label %36

36:                                               ; preds = %29
  %37 = load ptr, ptr %7, align 8
  %38 = call i32 @cli_rmdirs(ptr noundef %37)
  br label %39

39:                                               ; preds = %36, %29
  %40 = load ptr, ptr %7, align 8
  call void @free(ptr noundef %40) #11
  %41 = load i32, ptr %4, align 4
  %42 = call ptr @cl_strerror(i32 noundef %41)
  call void (ptr, ...) @cli_dbgmsg(ptr noundef @.str.188, ptr noundef %42)
  %43 = load i32, ptr %4, align 4
  store i32 %43, ptr %2, align 4
  br label %166

44:                                               ; preds = %21
  br label %45

45:                                               ; preds = %134, %44
  %46 = getelementptr inbounds %struct.arj_metadata_tag, ptr %6, i32 0, i32 0
  store ptr null, ptr %46, align 8
  %47 = load ptr, ptr %7, align 8
  %48 = call i32 @cli_unarj_prepare_file(ptr noundef %47, ptr noundef %6)
  store i32 %48, ptr %4, align 4
  %49 = load i32, ptr %4, align 4
  %50 = icmp ne i32 %49, 0
  br i1 %50, label %51, label %54

51:                                               ; preds = %45
  %52 = load i32, ptr %4, align 4
  %53 = call ptr @cl_strerror(i32 noundef %52)
  call void (ptr, ...) @cli_dbgmsg(ptr noundef @.str.189, ptr noundef %53)
  br label %137

54:                                               ; preds = %45
  %55 = load i32, ptr %5, align 4
  %56 = add nsw i32 %55, 1
  store i32 %56, ptr %5, align 4
  %57 = load ptr, ptr %3, align 8
  %58 = getelementptr inbounds %struct.arj_metadata_tag, ptr %6, i32 0, i32 0
  %59 = load ptr, ptr %58, align 8
  %60 = getelementptr inbounds %struct.arj_metadata_tag, ptr %6, i32 0, i32 1
  %61 = load i32, ptr %60, align 8
  %62 = zext i32 %61 to i64
  %63 = getelementptr inbounds %struct.arj_metadata_tag, ptr %6, i32 0, i32 2
  %64 = load i32, ptr %63, align 4
  %65 = zext i32 %64 to i64
  %66 = getelementptr inbounds %struct.arj_metadata_tag, ptr %6, i32 0, i32 3
  %67 = load i32, ptr %66, align 8
  %68 = load i32, ptr %5, align 4
  %69 = call i32 @cli_matchmeta(ptr noundef %57, ptr noundef %59, i64 noundef %62, i64 noundef %65, i32 noundef %67, i32 noundef %68, i32 noundef 0)
  %70 = icmp eq i32 1, %69
  br i1 %70, label %71, label %75

71:                                               ; preds = %54
  %72 = load ptr, ptr %7, align 8
  %73 = call i32 @cli_rmdirs(ptr noundef %72)
  %74 = load ptr, ptr %7, align 8
  call void @free(ptr noundef %74) #11
  store i32 1, ptr %2, align 4
  br label %166

75:                                               ; preds = %54
  %76 = load ptr, ptr %3, align 8
  %77 = getelementptr inbounds %struct.arj_metadata_tag, ptr %6, i32 0, i32 2
  %78 = load i32, ptr %77, align 4
  %79 = zext i32 %78 to i64
  %80 = getelementptr inbounds %struct.arj_metadata_tag, ptr %6, i32 0, i32 1
  %81 = load i32, ptr %80, align 8
  %82 = zext i32 %81 to i64
  %83 = call i32 @cli_checklimits(ptr noundef @.str.190, ptr noundef %76, i64 noundef %79, i64 noundef %82, i64 noundef 0)
  store i32 %83, ptr %4, align 4
  %84 = icmp ne i32 %83, 0
  br i1 %84, label %85, label %93

85:                                               ; preds = %75
  store i32 0, ptr %4, align 4
  %86 = getelementptr inbounds %struct.arj_metadata_tag, ptr %6, i32 0, i32 0
  %87 = load ptr, ptr %86, align 8
  %88 = icmp ne ptr %87, null
  br i1 %88, label %89, label %92

89:                                               ; preds = %85
  %90 = getelementptr inbounds %struct.arj_metadata_tag, ptr %6, i32 0, i32 0
  %91 = load ptr, ptr %90, align 8
  call void @free(ptr noundef %91) #11
  br label %92

92:                                               ; preds = %89, %85
  br label %134

93:                                               ; preds = %75
  %94 = load ptr, ptr %7, align 8
  %95 = call i32 @cli_unarj_extract_file(ptr noundef %94, ptr noundef %6)
  store i32 %95, ptr %4, align 4
  %96 = load i32, ptr %4, align 4
  %97 = icmp ne i32 %96, 0
  br i1 %97, label %98, label %101

98:                                               ; preds = %93
  %99 = load i32, ptr %4, align 4
  %100 = call ptr @cl_strerror(i32 noundef %99)
  call void (ptr, ...) @cli_dbgmsg(ptr noundef @.str.191, ptr noundef %100)
  br label %101

101:                                              ; preds = %98, %93
  %102 = getelementptr inbounds %struct.arj_metadata_tag, ptr %6, i32 0, i32 4
  %103 = load i32, ptr %102, align 4
  %104 = icmp sge i32 %103, 0
  br i1 %104, label %105, label %125

105:                                              ; preds = %101
  %106 = getelementptr inbounds %struct.arj_metadata_tag, ptr %6, i32 0, i32 4
  %107 = load i32, ptr %106, align 4
  %108 = call i64 @lseek(i32 noundef %107, i64 noundef 0, i32 noundef 0) #11
  %109 = icmp eq i64 %108, -1
  br i1 %109, label %110, label %111

110:                                              ; preds = %105
  call void (ptr, ...) @cli_dbgmsg(ptr noundef @.str.192)
  br label %111

111:                                              ; preds = %110, %105
  %112 = getelementptr inbounds %struct.arj_metadata_tag, ptr %6, i32 0, i32 4
  %113 = load i32, ptr %112, align 4
  %114 = load ptr, ptr %3, align 8
  %115 = getelementptr inbounds %struct.arj_metadata_tag, ptr %6, i32 0, i32 0
  %116 = load ptr, ptr %115, align 8
  %117 = call i32 @cli_magic_scan_desc(i32 noundef %113, ptr noundef null, ptr noundef %114, ptr noundef %116, i32 noundef 0)
  store i32 %117, ptr %4, align 4
  %118 = getelementptr inbounds %struct.arj_metadata_tag, ptr %6, i32 0, i32 4
  %119 = load i32, ptr %118, align 4
  %120 = call i32 @close(i32 noundef %119)
  %121 = load i32, ptr %4, align 4
  %122 = icmp ne i32 %121, 0
  br i1 %122, label %123, label %124

123:                                              ; preds = %111
  br label %137

124:                                              ; preds = %111
  br label %125

125:                                              ; preds = %124, %101
  %126 = getelementptr inbounds %struct.arj_metadata_tag, ptr %6, i32 0, i32 0
  %127 = load ptr, ptr %126, align 8
  %128 = icmp ne ptr %127, null
  br i1 %128, label %129, label %133

129:                                              ; preds = %125
  %130 = getelementptr inbounds %struct.arj_metadata_tag, ptr %6, i32 0, i32 0
  %131 = load ptr, ptr %130, align 8
  call void @free(ptr noundef %131) #11
  %132 = getelementptr inbounds %struct.arj_metadata_tag, ptr %6, i32 0, i32 0
  store ptr null, ptr %132, align 8
  br label %133

133:                                              ; preds = %129, %125
  br label %134

134:                                              ; preds = %133, %92
  %135 = load i32, ptr %4, align 4
  %136 = icmp eq i32 %135, 0
  br i1 %136, label %45, label %137

137:                                              ; preds = %134, %123, %51
  %138 = load ptr, ptr %3, align 8
  %139 = getelementptr inbounds %struct.cli_ctx_tag, ptr %138, i32 0, i32 6
  %140 = load ptr, ptr %139, align 8
  %141 = getelementptr inbounds %struct.cl_engine, ptr %140, i32 0, i32 8
  %142 = load i32, ptr %141, align 8
  %143 = icmp ne i32 %142, 0
  br i1 %143, label %147, label %144

144:                                              ; preds = %137
  %145 = load ptr, ptr %7, align 8
  %146 = call i32 @cli_rmdirs(ptr noundef %145)
  br label %147

147:                                              ; preds = %144, %137
  %148 = load ptr, ptr %7, align 8
  %149 = icmp ne ptr null, %148
  br i1 %149, label %150, label %152

150:                                              ; preds = %147
  %151 = load ptr, ptr %7, align 8
  call void @free(ptr noundef %151) #11
  br label %152

152:                                              ; preds = %150, %147
  %153 = getelementptr inbounds %struct.arj_metadata_tag, ptr %6, i32 0, i32 0
  %154 = load ptr, ptr %153, align 8
  %155 = icmp ne ptr %154, null
  br i1 %155, label %156, label %159

156:                                              ; preds = %152
  %157 = getelementptr inbounds %struct.arj_metadata_tag, ptr %6, i32 0, i32 0
  %158 = load ptr, ptr %157, align 8
  call void @free(ptr noundef %158) #11
  br label %159

159:                                              ; preds = %156, %152
  %160 = load i32, ptr %4, align 4
  call void (ptr, ...) @cli_dbgmsg(ptr noundef @.str.193, i32 noundef %160)
  %161 = load i32, ptr %4, align 4
  %162 = icmp eq i32 %161, 22
  br i1 %162, label %163, label %164

163:                                              ; preds = %159
  store i32 0, ptr %4, align 4
  br label %164

164:                                              ; preds = %163, %159
  %165 = load i32, ptr %4, align 4
  store i32 %165, ptr %2, align 4
  br label %166

166:                                              ; preds = %164, %71, %39, %18, %13
  %167 = load i32, ptr %2, align 4
  ret i32 %167
}