; Function Attrs: nounwind uwtable
define internal fastcc i32 @cli_scanarj(ptr noundef %0) unnamed_addr #0 {
  %2 = alloca %struct.arj_metadata_tag, align 8
  tail call void (ptr, ...) @cli_dbgmsg(ptr noundef nonnull @.str.185) #16
  call void @llvm.memset.p0.i64(ptr noundef nonnull align 8 dereferenceable(48) %2, i8 0, i64 48, i1 false)
  %3 = getelementptr inbounds nuw i8, ptr %0, i64 16
  %4 = load ptr, ptr %3, align 8
  %5 = tail call ptr @cli_gentemp_with_prefix(ptr noundef %4, ptr noundef nonnull @.str.186) #16
  %.not = icmp eq ptr %5, null
  br i1 %.not, label %84, label %6

6:                                                ; preds = %1
  %7 = tail call i32 @mkdir(ptr noundef nonnull %5, i32 noundef 448) #16
  %.not46 = icmp eq i32 %7, 0
  br i1 %.not46, label %9, label %8

8:                                                ; preds = %6
  tail call void (ptr, ...) @cli_dbgmsg(ptr noundef nonnull @.str.187, ptr noundef nonnull %5) #16
  tail call void @free(ptr noundef nonnull %5) #16
  br label %84

9:                                                ; preds = %6
  %10 = getelementptr inbounds nuw i8, ptr %0, i64 96
  %11 = load ptr, ptr %10, align 8
  %12 = call i32 @cli_unarj_open(ptr noundef %11, ptr noundef nonnull %5, ptr noundef nonnull %2) #16
  %.not47 = icmp eq i32 %12, 0
  br i1 %.not47, label %.preheader, label %17

.preheader:                                       ; preds = %9
  %13 = getelementptr inbounds nuw i8, ptr %2, i64 8
  %14 = getelementptr inbounds nuw i8, ptr %2, i64 12
  %15 = getelementptr inbounds nuw i8, ptr %2, i64 16
  %16 = getelementptr inbounds nuw i8, ptr %2, i64 20
  br label %26

17:                                               ; preds = %9
  %18 = getelementptr inbounds nuw i8, ptr %0, i64 48
  %19 = load ptr, ptr %18, align 8
  %20 = getelementptr inbounds nuw i8, ptr %19, i64 40
  %21 = load i32, ptr %20, align 8
  %.not56 = icmp eq i32 %21, 0
  br i1 %.not56, label %22, label %24

22:                                               ; preds = %17
  %23 = call i32 @cli_rmdirs(ptr noundef nonnull %5) #16
  br label %24

24:                                               ; preds = %22, %17
  call void @free(ptr noundef nonnull %5) #16
  %25 = call ptr @cl_strerror(i32 noundef %12) #16
  call void (ptr, ...) @cli_dbgmsg(ptr noundef nonnull @.str.188, ptr noundef %25) #16
  br label %84

26:                                               ; preds = %.preheader, %71
  %.0 = phi i32 [ %31, %71 ], [ 0, %.preheader ]
  store ptr null, ptr %2, align 8
  %27 = call i32 @cli_unarj_prepare_file(ptr noundef nonnull %5, ptr noundef nonnull %2) #16
  %.not48 = icmp eq i32 %27, 0
  br i1 %.not48, label %30, label %28

28:                                               ; preds = %26
  %29 = call ptr @cl_strerror(i32 noundef %27) #16
  call void (ptr, ...) @cli_dbgmsg(ptr noundef nonnull @.str.189, ptr noundef %29) #16
  br label %.loopexit

30:                                               ; preds = %26
  %31 = add nuw nsw i32 %.0, 1
  %32 = load ptr, ptr %2, align 8
  %33 = load i32, ptr %13, align 8
  %34 = zext i32 %33 to i64
  %35 = load i32, ptr %14, align 4
  %36 = zext i32 %35 to i64
  %37 = load i32, ptr %15, align 8
  %38 = call i32 @cli_matchmeta(ptr noundef %0, ptr noundef %32, i64 noundef %34, i64 noundef %36, i32 noundef %37, i32 noundef %31, i32 noundef 0) #16
  %39 = icmp eq i32 %38, 1
  br i1 %39, label %40, label %42

40:                                               ; preds = %30
  %41 = call i32 @cli_rmdirs(ptr noundef nonnull %5) #16
  call void @free(ptr noundef nonnull %5) #16
  br label %84

42:                                               ; preds = %30
  %43 = load i32, ptr %14, align 4
  %44 = zext i32 %43 to i64
  %45 = load i32, ptr %13, align 8
  %46 = zext i32 %45 to i64
  %47 = call i32 @cli_checklimits(ptr noundef nonnull @.str.190, ptr noundef %0, i64 noundef %44, i64 noundef %46, i64 noundef 0) #16
  %.not49 = icmp eq i32 %47, 0
  br i1 %.not49, label %51, label %48

48:                                               ; preds = %42
  %49 = load ptr, ptr %2, align 8
  %.not53 = icmp eq ptr %49, null
  br i1 %.not53, label %71, label %50

50:                                               ; preds = %48
  call void @free(ptr noundef nonnull %49) #16
  br label %71

51:                                               ; preds = %42
  %52 = call i32 @cli_unarj_extract_file(ptr noundef nonnull %5, ptr noundef nonnull %2) #16
  %.not50 = icmp eq i32 %52, 0
  br i1 %.not50, label %55, label %53

53:                                               ; preds = %51
  %54 = call ptr @cl_strerror(i32 noundef %52) #16
  call void (ptr, ...) @cli_dbgmsg(ptr noundef nonnull @.str.191, ptr noundef %54) #16
  br label %55

55:                                               ; preds = %53, %51
  %56 = load i32, ptr %16, align 4
  %57 = icmp sgt i32 %56, -1
  br i1 %57, label %58, label %68

58:                                               ; preds = %55
  %59 = call i64 @lseek(i32 noundef %56, i64 noundef 0, i32 noundef 0) #16
  %60 = icmp eq i64 %59, -1
  br i1 %60, label %61, label %62

61:                                               ; preds = %58
  call void (ptr, ...) @cli_dbgmsg(ptr noundef nonnull @.str.192) #16
  br label %62

62:                                               ; preds = %61, %58
  %63 = load i32, ptr %16, align 4
  %64 = load ptr, ptr %2, align 8
  %65 = call i32 @cli_magic_scan_desc_type(i32 noundef %63, ptr noundef null, ptr noundef %0, i32 noundef 0, ptr noundef %64, i32 noundef 0)
  %66 = load i32, ptr %16, align 4
  %67 = call i32 @close(i32 noundef %66) #16
  %.not51 = icmp eq i32 %65, 0
  br i1 %.not51, label %68, label %.loopexit

68:                                               ; preds = %62, %55
  %.2 = phi i32 [ 0, %62 ], [ %52, %55 ]
  %69 = load ptr, ptr %2, align 8
  %.not52 = icmp eq ptr %69, null
  br i1 %.not52, label %71, label %70

70:                                               ; preds = %68
  call void @free(ptr noundef nonnull %69) #16
  store ptr null, ptr %2, align 8
  br label %71

71:                                               ; preds = %68, %70, %48, %50
  %.1 = phi i32 [ 0, %50 ], [ 0, %48 ], [ %.2, %70 ], [ %.2, %68 ]
  %72 = icmp eq i32 %.1, 0
  br i1 %72, label %26, label %.loopexit

.loopexit:                                        ; preds = %62, %71, %28
  %.034 = phi i32 [ %27, %28 ], [ %65, %62 ], [ %.1, %71 ]
  %73 = getelementptr inbounds nuw i8, ptr %0, i64 48
  %74 = load ptr, ptr %73, align 8
  %75 = getelementptr inbounds nuw i8, ptr %74, i64 40
  %76 = load i32, ptr %75, align 8
  %.not54 = icmp eq i32 %76, 0
  br i1 %.not54, label %77, label %79

77:                                               ; preds = %.loopexit
  %78 = call i32 @cli_rmdirs(ptr noundef nonnull %5) #16
  br label %79

79:                                               ; preds = %.loopexit, %77
  call void @free(ptr noundef %5) #16
  %80 = load ptr, ptr %2, align 8
  %.not55 = icmp eq ptr %80, null
  br i1 %.not55, label %82, label %81

81:                                               ; preds = %79
  call void @free(ptr noundef nonnull %80) #16
  br label %82

82:                                               ; preds = %81, %79
  call void (ptr, ...) @cli_dbgmsg(ptr noundef nonnull @.str.193, i32 noundef %.034) #16
  %83 = icmp eq i32 %.034, 22
  %spec.store.select = select i1 %83, i32 0, i32 %.034
  br label %84

84:                                               ; preds = %1, %82, %40, %24, %8
  %.035 = phi i32 [ 18, %8 ], [ %12, %24 ], [ %spec.store.select, %82 ], [ 1, %40 ], [ 20, %1 ]
  ret i32 %.035
}